; Function Attrs: mustprogress null_pointer_is_valid sspstrong uwtable
define void @_ZNK12ProfileModel15dataToolTipRoleERK11QModelIndex(ptr dead_on_unwind noalias writable sret(%class.QVariant) align 8 %0, ptr noundef align 8 dereferenceable_or_null(104) %1, ptr noundef align 8 dereferenceable(24) %2) local_unnamed_addr #0 align 2 personality ptr @__gxx_personality_v0 {
  %4 = alloca %class.QString, align 8
  %5 = load i32, ptr %2, align 8
  %6 = icmp sgt i32 %5, -1
  %7 = getelementptr inbounds nuw i8, ptr %2, i64 4
  %8 = load i32, ptr %7, align 4
  %9 = icmp sgt i32 %8, -1
  %or.cond = select i1 %6, i1 %9, i1 false
  %10 = getelementptr inbounds nuw i8, ptr %2, i64 16
  %11 = load ptr, ptr %10, align 8
  %12 = icmp ne ptr %11, null
  %or.cond17 = select i1 %or.cond, i1 %12, i1 false
  br i1 %or.cond17, label %13, label %_ZNK11QModelIndex7isValidEv.exit.thread

13:                                               ; preds = %3
  %14 = getelementptr inbounds nuw i8, ptr %1, i64 40
  %15 = load i64, ptr %14, align 8
  %16 = zext nneg i32 %5 to i64
  %.not = icmp sgt i64 %15, %16
  br i1 %.not, label %18, label %_ZNK11QModelIndex7isValidEv.exit.thread

_ZNK11QModelIndex7isValidEv.exit.thread:          ; preds = %3, %13
  tail call void @llvm.memset.p0.i64(ptr noundef align 8 dereferenceable(24) dereferenceable_or_null(32) %0, i8 0, i64 24, i1 false)
  %17 = getelementptr inbounds nuw i8, ptr %0, i64 24
  store i64 2, ptr %17, align 8
  br label %39

18:                                               ; preds = %13
  %19 = tail call noundef ptr @_ZNK12ProfileModel5guardEi(ptr noundef align 8 dereferenceable_or_null(104) %1, i32 noundef %5)
  %.not8 = icmp eq ptr %19, null
  br i1 %.not8, label %20, label %22

20:                                               ; preds = %18
  tail call void @llvm.memset.p0.i64(ptr noundef align 8 dereferenceable(24) dereferenceable_or_null(32) %0, i8 0, i64 24, i1 false)
  %21 = getelementptr inbounds nuw i8, ptr %0, i64 24
  store i64 2, ptr %21, align 8
  br label %39

22:                                               ; preds = %18
  %23 = getelementptr inbounds nuw i8, ptr %19, i64 20
  %24 = load i8, ptr %23, align 4, !range !58, !noundef !59
  %25 = trunc nuw i8 %24 to i1
  br i1 %25, label %26, label %38

26:                                               ; preds = %22
  call void @llvm.lifetime.start.p0(i64 24, ptr nonnull %4) #26
  call void @_ZNK11QMetaObject2trEPKcS1_i(ptr dead_on_unwind nonnull writable sret(%class.QString) align 8 %4, ptr noundef nonnull align 8 dereferenceable_or_null(56) @_ZN12ProfileModel16staticMetaObjectE, ptr noundef nonnull @.str.9, ptr noundef null, i32 noundef -1)
  invoke void @_ZN8QVariantC1ERK7QString(ptr noundef align 8 dereferenceable_or_null(32) %0, ptr noundef nonnull align 8 dereferenceable(24) %4)
          to label %27 unwind label %32

27:                                               ; preds = %26
  %28 = load ptr, ptr %4, align 8
  %.not.i.i.i = icmp eq ptr %28, null
  br i1 %.not.i.i.i, label %_ZN7QStringD2Ev.exit, label %_ZN17QArrayDataPointerIDsE5derefEv.exit.i.i

_ZN17QArrayDataPointerIDsE5derefEv.exit.i.i:      ; preds = %27
  %29 = atomicrmw sub ptr %28, i32 1 seq_cst, align 4
  %.not.i.i = icmp eq i32 %29, 1
  br i1 %.not.i.i, label %30, label %_ZN7QStringD2Ev.exit

30:                                               ; preds = %_ZN17QArrayDataPointerIDsE5derefEv.exit.i.i
  %31 = load ptr, ptr %4, align 8
  call void @_ZN10QArrayData10deallocateEPS_xx(ptr noundef %31, i64 noundef 2, i64 noundef 8) #26
  br label %_ZN7QStringD2Ev.exit

_ZN7QStringD2Ev.exit:                             ; preds = %27, %_ZN17QArrayDataPointerIDsE5derefEv.exit.i.i, %30
  call void @llvm.lifetime.end.p0(i64 24, ptr nonnull %4) #26
  br label %39

32:                                               ; preds = %26
  %33 = landingpad { ptr, i32 }
          cleanup
  %34 = load ptr, ptr %4, align 8
  %.not.i.i.i9 = icmp eq ptr %34, null
  br i1 %.not.i.i.i9, label %_ZN7QStringD2Ev.exit12, label %_ZN17QArrayDataPointerIDsE5derefEv.exit.i.i10

_ZN17QArrayDataPointerIDsE5derefEv.exit.i.i10:    ; preds = %32
  %35 = atomicrmw sub ptr %34, i32 1 seq_cst, align 4
  %.not.i.i11 = icmp eq i32 %35, 1
  br i1 %.not.i.i11, label %36, label %_ZN7QStringD2Ev.exit12

36:                                               ; preds = %_ZN17QArrayDataPointerIDsE5derefEv.exit.i.i10
  %37 = load ptr, ptr %4, align 8
  call void @_ZN10QArrayData10deallocateEPS_xx(ptr noundef %37, i64 noundef 2, i64 noundef 8) #26
  br label %_ZN7QStringD2Ev.exit12

_ZN7QStringD2Ev.exit12:                           ; preds = %32, %_ZN17QArrayDataPointerIDsE5derefEv.exit.i.i10, %36
  call void @llvm.lifetime.end.p0(i64 24, ptr nonnull %4) #26
  resume { ptr, i32 } %33

38:                                               ; preds = %22
  tail call void @_ZNK12ProfileModel8dataPathERK11QModelIndex(ptr dead_on_unwind writable sret(%class.QVariant) align 8 %0, ptr noundef align 8 dereferenceable_or_null(104) %1, ptr noundef align 8 dereferenceable(24) %2)
  br label %39

39:                                               ; preds = %20, %_ZN7QStringD2Ev.exit, %38, %_ZNK11QModelIndex7isValidEv.exit.thread
  ret void
}